; Function Attrs: nounwind uwtable
define internal void @ast_dealloc(ptr noundef %0) #0 {
  %2 = getelementptr i8, ptr %0, i64 8
  %.val = load ptr, ptr %2, align 8, !tbaa !133
  tail call void @PyObject_GC_UnTrack(ptr noundef %0) #8
  %3 = getelementptr inbounds nuw i8, ptr %0, i64 16
  %4 = load ptr, ptr %3, align 8, !tbaa !4
  %.not = icmp eq ptr %4, null
  br i1 %.not, label %Py_DECREF.exit13, label %5

5:                                                ; preds = %1
  store ptr null, ptr %3, align 8, !tbaa !4
  %6 = load i32, ptr %4, align 8, !tbaa !9
  %.not.i12 = icmp sgt i32 %6, -1
  br i1 %.not.i12, label %7, label %Py_DECREF.exit13

7:                                                ; preds = %5
  %8 = add nsw i32 %6, -1
  store i32 %8, ptr %4, align 8, !tbaa !9
  %9 = icmp eq i32 %8, 0
  br i1 %9, label %10, label %Py_DECREF.exit13

10:                                               ; preds = %7
  tail call void @_Py_Dealloc(ptr noundef nonnull %4) #8
  br label %Py_DECREF.exit13

Py_DECREF.exit13:                                 ; preds = %10, %7, %5, %1
  %11 = tail call ptr @PyType_GetSlot(ptr noundef %.val, i32 noundef 74) #8
  tail call void %11(ptr noundef nonnull %0) #8
  %12 = load i32, ptr %.val, align 8, !tbaa !9
  %.not.i = icmp sgt i32 %12, -1
  br i1 %.not.i, label %13, label %Py_DECREF.exit

13:                                               ; preds = %Py_DECREF.exit13
  %14 = add nsw i32 %12, -1
  store i32 %14, ptr %.val, align 8, !tbaa !9
  %15 = icmp eq i32 %14, 0
  br i1 %15, label %16, label %Py_DECREF.exit

16:                                               ; preds = %13
  tail call void @_Py_Dealloc(ptr noundef nonnull %.val) #8
  br label %Py_DECREF.exit

Py_DECREF.exit:                                   ; preds = %Py_DECREF.exit13, %13, %16
  ret void
}